target datalayout = "e-m:e-p270:32:32-p271:32:32-p272:64:64-i64:64-i128:128-f80:128-n8:16:32:64-S128"
target triple = "x86_64-pc-linux-gnu"

%"class.std::__cxx11::basic_string" = type { %"struct.std::__cxx11::basic_string<char>::_Alloc_hider", i64, %union.anon }
%"struct.std::__cxx11::basic_string<char>::_Alloc_hider" = type { ptr }
%union.anon = type { i64, [8 x i8] }
%"class.testing::AssertionResult" = type { i8, %"class.std::unique_ptr.35" }
%"class.std::unique_ptr.35" = type { %"struct.std::__uniq_ptr_data.36" }
%"struct.std::__uniq_ptr_data.36" = type { %"class.std::__uniq_ptr_impl.37" }
%"class.std::__uniq_ptr_impl.37" = type { %"class.std::tuple.38" }
%"class.std::tuple.38" = type { %"struct.std::_Tuple_impl.39" }
%"struct.std::_Tuple_impl.39" = type { %"struct.std::_Head_base.42" }
%"struct.std::_Head_base.42" = type { ptr }

; Function Attrs: mustprogress nounwind uwtable
define linkonce_odr dso_local void @_ZNSt15__new_allocatorIcE10deallocateEPcm(ptr noundef nonnull align 1 dereferenceable(1) %0, ptr noundef %1, i64 noundef %2) #5 comdat align 2 {
  %4 = alloca ptr, align 8
  %5 = alloca ptr, align 8
  %6 = alloca i64, align 8
  store ptr %0, ptr %4, align 8, !tbaa !29
  store ptr %1, ptr %5, align 8, !tbaa !13
  store i64 %2, ptr %6, align 8, !tbaa !102
  %7 = load ptr, ptr %5, align 8, !tbaa !13
  %8 = load i64, ptr %6, align 8, !tbaa !102
  %9 = mul i64 %8, 1
  call void @_ZdlPvm(ptr noundef %7, i64 noundef %9) #28
  ret void
}

; Function Attrs: mustprogress nounwind uwtable
define linkonce_odr dso_local noundef ptr @_ZNSt19__ptr_traits_ptr_toIPKcS0_Lb0EE10pointer_toERS0_(ptr noundef nonnull align 1 dereferenceable(1) %0) #5 comdat align 2 {
  %2 = alloca ptr, align 8
  store ptr %0, ptr %2, align 8, !tbaa !13
  %3 = load ptr, ptr %2, align 8, !tbaa !13
  ret ptr %3
}

; Function Attrs: mustprogress uwtable
define linkonce_odr dso_local void @_ZNSt16allocator_traitsISaIcEE10deallocateERS0_Pcm(ptr noundef nonnull align 1 dereferenceable(1) %0, ptr noundef %1, i64 noundef %2) #6 comdat align 2 {
  %4 = alloca ptr, align 8
  %5 = alloca ptr, align 8
  %6 = alloca i64, align 8
  store ptr %0, ptr %4, align 8, !tbaa !9
  store ptr %1, ptr %5, align 8, !tbaa !13
  store i64 %2, ptr %6, align 8, !tbaa !102
  %7 = load ptr, ptr %4, align 8, !tbaa !9
  %8 = load ptr, ptr %5, align 8, !tbaa !13
  %9 = load i64, ptr %6, align 8, !tbaa !102
  call void @_ZNSt15__new_allocatorIcE10deallocateEPcm(ptr noundef nonnull align 1 dereferenceable(1) %7, ptr noundef %8, i64 noundef %9)
  ret void
}

; Function Attrs: mustprogress nounwind uwtable
define available_externally noundef nonnull align 1 dereferenceable(1) ptr @_ZNSt7__cxx1112basic_stringIcSt11char_traitsIcESaIcEE16_M_get_allocatorEv(ptr noundef nonnull align 8 dereferenceable(32) %0) #5 align 2 {
  %2 = alloca ptr, align 8
  store ptr %0, ptr %2, align 8, !tbaa !11
  %3 = load ptr, ptr %2, align 8
  %4 = getelementptr inbounds nuw %"class.std::__cxx11::basic_string", ptr %3, i32 0, i32 0
  ret ptr %4
}

; Function Attrs: mustprogress nounwind uwtable
define available_externally noundef ptr @_ZNKSt7__cxx1112basic_stringIcSt11char_traitsIcESaIcEE13_M_local_dataEv(ptr noundef nonnull align 8 dereferenceable(32) %0) #5 align 2 {
  %2 = alloca ptr, align 8
  store ptr %0, ptr %2, align 8, !tbaa !11
  %3 = load ptr, ptr %2, align 8
  %4 = getelementptr inbounds nuw %"class.std::__cxx11::basic_string", ptr %3, i32 0, i32 2
  %5 = getelementptr inbounds [16 x i8], ptr %4, i64 0, i64 0
  %6 = call noundef ptr @_ZNSt19__ptr_traits_ptr_toIPKcS0_Lb0EE10pointer_toERS0_(ptr noundef nonnull align 1 dereferenceable(1) %5) #3
  ret ptr %6
}

; Function Attrs: mustprogress nounwind uwtable
define available_externally noundef ptr @_ZNKSt7__cxx1112basic_stringIcSt11char_traitsIcESaIcEE7_M_dataEv(ptr noundef nonnull align 8 dereferenceable(32) %0) #5 align 2 {
  %2 = alloca ptr, align 8
  store ptr %0, ptr %2, align 8, !tbaa !11
  %3 = load ptr, ptr %2, align 8
  %4 = getelementptr inbounds nuw %"class.std::__cxx11::basic_string", ptr %3, i32 0, i32 0
  %5 = getelementptr inbounds nuw %"struct.std::__cxx11::basic_string<char>::_Alloc_hider", ptr %4, i32 0, i32 0
  %6 = load ptr, ptr %5, align 8, !tbaa !103
  ret ptr %6
}

; Function Attrs: mustprogress nounwind uwtable
define available_externally void @_ZNSt7__cxx1112basic_stringIcSt11char_traitsIcESaIcEE10_M_destroyEm(ptr noundef nonnull align 8 dereferenceable(32) %0, i64 noundef %1) #5 align 2 personality ptr @__gxx_personality_v0 {
  %3 = alloca ptr, align 8
  %4 = alloca i64, align 8
  store ptr %0, ptr %3, align 8, !tbaa !11
  store i64 %1, ptr %4, align 8, !tbaa !102
  %5 = load ptr, ptr %3, align 8
  %6 = call noundef nonnull align 1 dereferenceable(1) ptr @_ZNSt7__cxx1112basic_stringIcSt11char_traitsIcESaIcEE16_M_get_allocatorEv(ptr noundef nonnull align 8 dereferenceable(32) %5)
  %7 = call noundef ptr @_ZNKSt7__cxx1112basic_stringIcSt11char_traitsIcESaIcEE7_M_dataEv(ptr noundef nonnull align 8 dereferenceable(32) %5)
  %8 = load i64, ptr %4, align 8, !tbaa !102
  %9 = add i64 %8, 1
  invoke void @_ZNSt16allocator_traitsISaIcEE10deallocateERS0_Pcm(ptr noundef nonnull align 1 dereferenceable(1) %6, ptr noundef %7, i64 noundef %9)
          to label %10 unwind label %11

10:                                               ; preds = %2
  ret void

11:                                               ; preds = %2
  %12 = landingpad { ptr, i32 }
          catch ptr null
  %13 = extractvalue { ptr, i32 } %12, 0
  call void @__clang_call_terminate(ptr %13) #30
  unreachable
}

; Function Attrs: mustprogress uwtable
define available_externally noundef zeroext i1 @_ZNKSt7__cxx1112basic_stringIcSt11char_traitsIcESaIcEE11_M_is_localEv(ptr noundef nonnull align 8 dereferenceable(32) %0) #6 align 2 {
  %2 = alloca i1, align 1
  %3 = alloca ptr, align 8
  store ptr %0, ptr %3, align 8, !tbaa !11
  %4 = load ptr, ptr %3, align 8
  %5 = call noundef ptr @_ZNKSt7__cxx1112basic_stringIcSt11char_traitsIcESaIcEE7_M_dataEv(ptr noundef nonnull align 8 dereferenceable(32) %4)
  %6 = call noundef ptr @_ZNKSt7__cxx1112basic_stringIcSt11char_traitsIcESaIcEE13_M_local_dataEv(ptr noundef nonnull align 8 dereferenceable(32) %4)
  %7 = icmp eq ptr %5, %6
  br i1 %7, label %8, label %14

8:                                                ; preds = %1
  %9 = getelementptr inbounds nuw %"class.std::__cxx11::basic_string", ptr %4, i32 0, i32 1
  %10 = load i64, ptr %9, align 8, !tbaa !101
  %11 = icmp ugt i64 %10, 15
  br i1 %11, label %12, label %13

12:                                               ; preds = %8
  unreachable

13:                                               ; preds = %8
  store i1 true, ptr %2, align 1
  br label %15

14:                                               ; preds = %1
  store i1 false, ptr %2, align 1
  br label %15

15:                                               ; preds = %14, %13
  %16 = load i1, ptr %2, align 1
  ret i1 %16
}

; Function Attrs: noinline noreturn nounwind uwtable
define linkonce_odr hidden void @__clang_call_terminate(ptr noundef %0) #11 comdat {
  %2 = call ptr @__cxa_begin_catch(ptr %0) #3
  call void @_ZSt9terminatev() #30
  unreachable
}

; Function Attrs: mustprogress nounwind uwtable
define linkonce_odr dso_local void @_ZNSt15__new_allocatorIcED2Ev(ptr noundef nonnull align 1 dereferenceable(1) %0) unnamed_addr #5 comdat align 2 {
  %2 = alloca ptr, align 8
  store ptr %0, ptr %2, align 8, !tbaa !29
  ret void
}

; Function Attrs: mustprogress uwtable
define available_externally void @_ZNSt7__cxx1112basic_stringIcSt11char_traitsIcESaIcEE10_M_disposeEv(ptr noundef nonnull align 8 dereferenceable(32) %0) #6 align 2 {
  %2 = alloca ptr, align 8
  store ptr %0, ptr %2, align 8, !tbaa !11
  %3 = load ptr, ptr %2, align 8
  %4 = call noundef zeroext i1 @_ZNKSt7__cxx1112basic_stringIcSt11char_traitsIcESaIcEE11_M_is_localEv(ptr noundef nonnull align 8 dereferenceable(32) %3)
  br i1 %4, label %8, label %5

5:                                                ; preds = %1
  %6 = getelementptr inbounds nuw %"class.std::__cxx11::basic_string", ptr %3, i32 0, i32 2
  %7 = load i64, ptr %6, align 8, !tbaa !97
  call void @_ZNSt7__cxx1112basic_stringIcSt11char_traitsIcESaIcEE10_M_destroyEm(ptr noundef nonnull align 8 dereferenceable(32) %3, i64 noundef %7) #3
  br label %8

8:                                                ; preds = %5, %1
  ret void
}

; Function Attrs: mustprogress nounwind uwtable
define available_externally void @_ZNSt7__cxx1112basic_stringIcSt11char_traitsIcESaIcEED2Ev(ptr noundef nonnull align 8 dereferenceable(32) %0) unnamed_addr #5 align 2 personality ptr @__gxx_personality_v0 {
  %2 = alloca ptr, align 8
  store ptr %0, ptr %2, align 8, !tbaa !11
  %3 = load ptr, ptr %2, align 8
  invoke void @_ZNSt7__cxx1112basic_stringIcSt11char_traitsIcESaIcEE10_M_disposeEv(ptr noundef nonnull align 8 dereferenceable(32) %3)
          to label %4 unwind label %6

4:                                                ; preds = %1
  %5 = getelementptr inbounds nuw %"class.std::__cxx11::basic_string", ptr %3, i32 0, i32 0
  call void @_ZNSt15__new_allocatorIcED2Ev(ptr noundef nonnull align 8 dereferenceable(8) %5) #3
  ret void

6:                                                ; preds = %1
  %7 = landingpad { ptr, i32 }
          catch ptr null
  %8 = extractvalue { ptr, i32 } %7, 0
  call void @__clang_call_terminate(ptr %8) #30
  unreachable
}

; Function Attrs: mustprogress uwtable
define internal void @_ZN7testing8internal18CmpHelperEQFailureIZN12_GLOBAL__N_124NumbersTest_Atoenum_Test8TestBodyEvE3E01S4_EENS_15AssertionResultEPKcS7_RKT_RKT0_(ptr dead_on_unwind noalias writable sret(%"class.testing::AssertionResult") align 8 %0, ptr noundef %1, ptr noundef %2, ptr noundef nonnull align 4 dereferenceable(4) %3, ptr noundef nonnull align 4 dereferenceable(4) %4) #6 personality ptr @__gxx_personality_v0 {
  %6 = alloca ptr, align 8
  %7 = alloca ptr, align 8
  %8 = alloca ptr, align 8
  %9 = alloca ptr, align 8
  %10 = alloca ptr, align 8
  %11 = alloca %"class.std::__cxx11::basic_string", align 8
  %12 = alloca %"class.std::__cxx11::basic_string", align 8
  %13 = alloca ptr, align 8
  %14 = alloca i32, align 4
  store ptr %0, ptr %6, align 8
  store ptr %1, ptr %7, align 8, !tbaa !13
  store ptr %2, ptr %8, align 8, !tbaa !13
  store ptr %3, ptr %9, align 8, !tbaa !24
  store ptr %4, ptr %10, align 8, !tbaa !24
  %15 = load ptr, ptr %7, align 8, !tbaa !13
  %16 = load ptr, ptr %8, align 8, !tbaa !13
  call void @llvm.lifetime.start.p0(i64 32, ptr %11) #3
  %17 = load ptr, ptr %9, align 8, !tbaa !24
  %18 = load ptr, ptr %10, align 8, !tbaa !24
  call void @_ZN7testing8internal33FormatForComparisonFailureMessageIZN12_GLOBAL__N_124NumbersTest_Atoenum_Test8TestBodyEvE3E01S4_EENSt7__cxx1112basic_stringIcSt11char_traitsIcESaIcEEERKT_RKT0_(ptr dead_on_unwind writable sret(%"class.std::__cxx11::basic_string") align 8 %11, ptr noundef nonnull align 4 dereferenceable(4) %17, ptr noundef nonnull align 4 dereferenceable(4) %18)
  call void @llvm.lifetime.start.p0(i64 32, ptr %12) #3
  %19 = load ptr, ptr %10, align 8, !tbaa !24
  %20 = load ptr, ptr %9, align 8, !tbaa !24
  invoke void @_ZN7testing8internal33FormatForComparisonFailureMessageIZN12_GLOBAL__N_124NumbersTest_Atoenum_Test8TestBodyEvE3E01S4_EENSt7__cxx1112basic_stringIcSt11char_traitsIcESaIcEEERKT_RKT0_(ptr dead_on_unwind writable sret(%"class.std::__cxx11::basic_string") align 8 %12, ptr noundef nonnull align 4 dereferenceable(4) %19, ptr noundef nonnull align 4 dereferenceable(4) %20)
          to label %21 unwind label %23

21:                                               ; preds = %5
  invoke void @_ZN7testing8internal9EqFailureEPKcS2_RKNSt7__cxx1112basic_stringIcSt11char_traitsIcESaIcEEESA_b(ptr dead_on_unwind writable sret(%"class.testing::AssertionResult") align 8 %0, ptr noundef %15, ptr noundef %16, ptr noundef nonnull align 8 dereferenceable(32) %11, ptr noundef nonnull align 8 dereferenceable(32) %12, i1 noundef zeroext false)
          to label %22 unwind label %27

22:                                               ; preds = %21
  call void @_ZNSt7__cxx1112basic_stringIcSt11char_traitsIcESaIcEED2Ev(ptr noundef nonnull align 8 dereferenceable(32) %12) #3
  call void @llvm.lifetime.end.p0(i64 32, ptr %12) #3
  call void @_ZNSt7__cxx1112basic_stringIcSt11char_traitsIcESaIcEED2Ev(ptr noundef nonnull align 8 dereferenceable(32) %11) #3
  call void @llvm.lifetime.end.p0(i64 32, ptr %11) #3
  ret void

23:                                               ; preds = %5
  %24 = landingpad { ptr, i32 }
          cleanup
  %25 = extractvalue { ptr, i32 } %24, 0
  store ptr %25, ptr %13, align 8
  %26 = extractvalue { ptr, i32 } %24, 1
  store i32 %26, ptr %14, align 4
  br label %31

27:                                               ; preds = %21
  %28 = landingpad { ptr, i32 }
          cleanup
  %29 = extractvalue { ptr, i32 } %28, 0
  store ptr %29, ptr %13, align 8
  %30 = extractvalue { ptr, i32 } %28, 1
  store i32 %30, ptr %14, align 4
  call void @_ZNSt7__cxx1112basic_stringIcSt11char_traitsIcESaIcEED2Ev(ptr noundef nonnull align 8 dereferenceable(32) %12) #3
  br label %31

31:                                               ; preds = %27, %23
  call void @llvm.lifetime.end.p0(i64 32, ptr %12) #3
  call void @_ZNSt7__cxx1112basic_stringIcSt11char_traitsIcESaIcEED2Ev(ptr noundef nonnull align 8 dereferenceable(32) %11) #3
  call void @llvm.lifetime.end.p0(i64 32, ptr %11) #3
  br label %32

32:                                               ; preds = %31
  %33 = load ptr, ptr %13, align 8
  %34 = load i32, ptr %14, align 4
  %35 = insertvalue { ptr, i32 } poison, ptr %33, 0
  %36 = insertvalue { ptr, i32 } %35, i32 %34, 1
  resume { ptr, i32 } %36
}

; Function Attrs: mustprogress uwtable
define internal void @_ZN7testing8internal11CmpHelperEQIZN12_GLOBAL__N_124NumbersTest_Atoenum_Test8TestBodyEvE3E01S4_EENS_15AssertionResultEPKcS7_RKT_RKT0_(ptr dead_on_unwind noalias writable sret(%"class.testing::AssertionResult") align 8 %0, ptr noundef %1, ptr noundef %2, ptr noundef nonnull align 4 dereferenceable(4) %3, ptr noundef nonnull align 4 dereferenceable(4) %4) #6 {
  %6 = alloca ptr, align 8
  %7 = alloca ptr, align 8
  %8 = alloca ptr, align 8
  %9 = alloca ptr, align 8
  %10 = alloca ptr, align 8
  store ptr %0, ptr %6, align 8
  store ptr %1, ptr %7, align 8, !tbaa !13
  store ptr %2, ptr %8, align 8, !tbaa !13
  store ptr %3, ptr %9, align 8, !tbaa !24
  store ptr %4, ptr %10, align 8, !tbaa !24
  %11 = load ptr, ptr %9, align 8, !tbaa !24
  %12 = load i32, ptr %11, align 4, !tbaa !97
  %13 = load ptr, ptr %10, align 8, !tbaa !24
  %14 = load i32, ptr %13, align 4, !tbaa !97
  %15 = icmp eq i32 %12, %14
  br i1 %15, label %16, label %17

16:                                               ; preds = %5
  call void @_ZN7testing16AssertionSuccessEv(ptr dead_on_unwind writable sret(%"class.testing::AssertionResult") align 8 %0)
  br label %22

17:                                               ; preds = %5
  %18 = load ptr, ptr %7, align 8, !tbaa !13
  %19 = load ptr, ptr %8, align 8, !tbaa !13
  %20 = load ptr, ptr %9, align 8, !tbaa !24
  %21 = load ptr, ptr %10, align 8, !tbaa !24
  call void @_ZN7testing8internal18CmpHelperEQFailureIZN12_GLOBAL__N_124NumbersTest_Atoenum_Test8TestBodyEvE3E01S4_EENS_15AssertionResultEPKcS7_RKT_RKT0_(ptr dead_on_unwind writable sret(%"class.testing::AssertionResult") align 8 %0, ptr noundef %18, ptr noundef %19, ptr noundef nonnull align 4 dereferenceable(4) %20, ptr noundef nonnull align 4 dereferenceable(4) %21)
  br label %22

22:                                               ; preds = %17, %16
  ret void
}

; Function Attrs: mustprogress uwtable
define internal void @_ZN7testing8internal8EqHelper7CompareIZN12_GLOBAL__N_124NumbersTest_Atoenum_Test8TestBodyEvE3E01S5_TnPNSt9enable_ifIXoontsr3std11is_integralIT_EE5valuentsr3std10is_pointerIT0_EE5valueEvE4typeELPv0EEENS_15AssertionResultEPKcSF_RKS7_RKS8_(ptr dead_on_unwind noalias writable sret(%"class.testing::AssertionResult") align 8 %0, ptr noundef %1, ptr noundef %2, ptr noundef nonnull align 4 dereferenceable(4) %3, ptr noundef nonnull align 4 dereferenceable(4) %4) #6 align 2 {
  %6 = alloca ptr, align 8
  %7 = alloca ptr, align 8
  %8 = alloca ptr, align 8
  %9 = alloca ptr, align 8
  %10 = alloca ptr, align 8
  store ptr %0, ptr %6, align 8
  store ptr %1, ptr %7, align 8, !tbaa !13
  store ptr %2, ptr %8, align 8, !tbaa !13
  store ptr %3, ptr %9, align 8, !tbaa !24
  store ptr %4, ptr %10, align 8, !tbaa !24
  %11 = load ptr, ptr %7, align 8, !tbaa !13
  %12 = load ptr, ptr %8, align 8, !tbaa !13
  %13 = load ptr, ptr %9, align 8, !tbaa !24
  %14 = load ptr, ptr %10, align 8, !tbaa !24
  call void @_ZN7testing8internal11CmpHelperEQIZN12_GLOBAL__N_124NumbersTest_Atoenum_Test8TestBodyEvE3E01S4_EENS_15AssertionResultEPKcS7_RKT_RKT0_(ptr dead_on_unwind writable sret(%"class.testing::AssertionResult") align 8 %0, ptr noundef %11, ptr noundef %12, ptr noundef nonnull align 4 dereferenceable(4) %13, ptr noundef nonnull align 4 dereferenceable(4) %14)
  ret void
}